; Function Attrs: mustprogress uwtable
define internal fastcc void @_ZL26stbi__gif_parse_colortableP13stbi__contextPA4_hii(ptr noundef nonnull %0, ptr noundef nonnull writeonly captures(none) %1, i32 noundef range(i32 2, 257) %2, i32 noundef %3) unnamed_addr #5 {
  %5 = getelementptr inbounds nuw i8, ptr %0, i64 192
  %6 = getelementptr inbounds nuw i8, ptr %0, i64 200
  %7 = getelementptr inbounds nuw i8, ptr %0, i64 48
  %8 = getelementptr inbounds nuw i8, ptr %0, i64 16
  %9 = getelementptr inbounds nuw i8, ptr %0, i64 40
  %10 = getelementptr inbounds nuw i8, ptr %0, i64 56
  %11 = getelementptr inbounds nuw i8, ptr %0, i64 52
  %12 = getelementptr inbounds nuw i8, ptr %0, i64 208
  %13 = getelementptr inbounds nuw i8, ptr %0, i64 184
  %14 = getelementptr inbounds nuw i8, ptr %0, i64 57
  %15 = zext i32 %3 to i64
  %wide.trip.count = zext nneg i32 %2 to i64
  br label %16

16:                                               ; preds = %4, %_ZL10stbi__get8P13stbi__context.exit26
  %indvars.iv = phi i64 [ 0, %4 ], [ %indvars.iv.next, %_ZL10stbi__get8P13stbi__context.exit26 ]
  %17 = load ptr, ptr %5, align 8, !tbaa !20
  %18 = load ptr, ptr %6, align 8, !tbaa !23
  %19 = icmp ult ptr %17, %18
  br i1 %19, label %20, label %23

20:                                               ; preds = %16
  %21 = getelementptr inbounds nuw i8, ptr %17, i64 1
  store ptr %21, ptr %5, align 8, !tbaa !20
  %22 = load i8, ptr %17, align 1, !tbaa !22
  br label %_ZL10stbi__get8P13stbi__context.exit

23:                                               ; preds = %16
  %24 = load i32, ptr %7, align 8, !tbaa !17
  %.not.i = icmp eq i32 %24, 0
  br i1 %.not.i, label %_ZL10stbi__get8P13stbi__context.exit, label %25

25:                                               ; preds = %23
  %26 = load ptr, ptr %8, align 8, !tbaa !21
  %27 = load ptr, ptr %9, align 8, !tbaa !13
  %28 = load i32, ptr %11, align 4, !tbaa !16
  %29 = tail call noundef i32 %26(ptr noundef %27, ptr noundef nonnull %10, i32 noundef %28)
  %30 = load ptr, ptr %5, align 8, !tbaa !20
  %31 = load ptr, ptr %12, align 8, !tbaa !19
  %32 = ptrtoint ptr %30 to i64
  %33 = ptrtoint ptr %31 to i64
  %34 = sub i64 %32, %33
  %35 = trunc i64 %34 to i32
  %36 = load i32, ptr %13, align 8, !tbaa !18
  %37 = add nsw i32 %36, %35
  store i32 %37, ptr %13, align 8, !tbaa !18
  %38 = icmp eq i32 %29, 0
  br i1 %38, label %39, label %40

39:                                               ; preds = %25
  store i32 0, ptr %7, align 8, !tbaa !17
  store i8 0, ptr %10, align 1, !tbaa !22
  br label %_ZL19stbi__refill_bufferP13stbi__context.exit.i

40:                                               ; preds = %25
  %41 = sext i32 %29 to i64
  %42 = getelementptr inbounds i8, ptr %10, i64 %41
  %.pre.i = load i8, ptr %10, align 1, !tbaa !22
  br label %_ZL19stbi__refill_bufferP13stbi__context.exit.i

_ZL19stbi__refill_bufferP13stbi__context.exit.i:  ; preds = %40, %39
  %43 = phi i8 [ 0, %39 ], [ %.pre.i, %40 ]
  %.sink.i.i = phi ptr [ %14, %39 ], [ %42, %40 ]
  store ptr %.sink.i.i, ptr %6, align 8, !tbaa !23
  store ptr %14, ptr %5, align 8, !tbaa !20
  br label %_ZL10stbi__get8P13stbi__context.exit

_ZL10stbi__get8P13stbi__context.exit:             ; preds = %20, %23, %_ZL19stbi__refill_bufferP13stbi__context.exit.i
  %.0.i = phi i8 [ %22, %20 ], [ %43, %_ZL19stbi__refill_bufferP13stbi__context.exit.i ], [ 0, %23 ]
  %44 = getelementptr inbounds nuw [4 x i8], ptr %1, i64 %indvars.iv
  %45 = getelementptr inbounds nuw i8, ptr %44, i64 2
  store i8 %.0.i, ptr %45, align 1, !tbaa !22
  %46 = load ptr, ptr %5, align 8, !tbaa !20
  %47 = load ptr, ptr %6, align 8, !tbaa !23
  %48 = icmp ult ptr %46, %47
  br i1 %48, label %49, label %52

49:                                               ; preds = %_ZL10stbi__get8P13stbi__context.exit
  %50 = getelementptr inbounds nuw i8, ptr %46, i64 1
  store ptr %50, ptr %5, align 8, !tbaa !20
  %51 = load i8, ptr %46, align 1, !tbaa !22
  br label %_ZL10stbi__get8P13stbi__context.exit20

52:                                               ; preds = %_ZL10stbi__get8P13stbi__context.exit
  %53 = load i32, ptr %7, align 8, !tbaa !17
  %.not.i15 = icmp eq i32 %53, 0
  br i1 %.not.i15, label %_ZL10stbi__get8P13stbi__context.exit20, label %54

54:                                               ; preds = %52
  %55 = load ptr, ptr %8, align 8, !tbaa !21
  %56 = load ptr, ptr %9, align 8, !tbaa !13
  %57 = load i32, ptr %11, align 4, !tbaa !16
  %58 = tail call noundef i32 %55(ptr noundef %56, ptr noundef nonnull %10, i32 noundef %57)
  %59 = load ptr, ptr %5, align 8, !tbaa !20
  %60 = load ptr, ptr %12, align 8, !tbaa !19
  %61 = ptrtoint ptr %59 to i64
  %62 = ptrtoint ptr %60 to i64
  %63 = sub i64 %61, %62
  %64 = trunc i64 %63 to i32
  %65 = load i32, ptr %13, align 8, !tbaa !18
  %66 = add nsw i32 %65, %64
  store i32 %66, ptr %13, align 8, !tbaa !18
  %67 = icmp eq i32 %58, 0
  br i1 %67, label %68, label %69

68:                                               ; preds = %54
  store i32 0, ptr %7, align 8, !tbaa !17
  store i8 0, ptr %10, align 1, !tbaa !22
  br label %_ZL19stbi__refill_bufferP13stbi__context.exit.i17

69:                                               ; preds = %54
  %70 = sext i32 %58 to i64
  %71 = getelementptr inbounds i8, ptr %10, i64 %70
  %.pre.i16 = load i8, ptr %10, align 1, !tbaa !22
  br label %_ZL19stbi__refill_bufferP13stbi__context.exit.i17

_ZL19stbi__refill_bufferP13stbi__context.exit.i17: ; preds = %69, %68
  %72 = phi i8 [ 0, %68 ], [ %.pre.i16, %69 ]
  %.sink.i.i18 = phi ptr [ %14, %68 ], [ %71, %69 ]
  store ptr %.sink.i.i18, ptr %6, align 8, !tbaa !23
  store ptr %14, ptr %5, align 8, !tbaa !20
  br label %_ZL10stbi__get8P13stbi__context.exit20

_ZL10stbi__get8P13stbi__context.exit20:           ; preds = %49, %52, %_ZL19stbi__refill_bufferP13stbi__context.exit.i17
  %.0.i19 = phi i8 [ %51, %49 ], [ %72, %_ZL19stbi__refill_bufferP13stbi__context.exit.i17 ], [ 0, %52 ]
  %73 = getelementptr inbounds nuw i8, ptr %44, i64 1
  store i8 %.0.i19, ptr %73, align 1, !tbaa !22
  %74 = load ptr, ptr %5, align 8, !tbaa !20
  %75 = load ptr, ptr %6, align 8, !tbaa !23
  %76 = icmp ult ptr %74, %75
  br i1 %76, label %77, label %80

77:                                               ; preds = %_ZL10stbi__get8P13stbi__context.exit20
  %78 = getelementptr inbounds nuw i8, ptr %74, i64 1
  store ptr %78, ptr %5, align 8, !tbaa !20
  %79 = load i8, ptr %74, align 1, !tbaa !22
  br label %_ZL10stbi__get8P13stbi__context.exit26

80:                                               ; preds = %_ZL10stbi__get8P13stbi__context.exit20
  %81 = load i32, ptr %7, align 8, !tbaa !17
  %.not.i21 = icmp eq i32 %81, 0
  br i1 %.not.i21, label %_ZL10stbi__get8P13stbi__context.exit26, label %82

82:                                               ; preds = %80
  %83 = load ptr, ptr %8, align 8, !tbaa !21
  %84 = load ptr, ptr %9, align 8, !tbaa !13
  %85 = load i32, ptr %11, align 4, !tbaa !16
  %86 = tail call noundef i32 %83(ptr noundef %84, ptr noundef nonnull %10, i32 noundef %85)
  %87 = load ptr, ptr %5, align 8, !tbaa !20
  %88 = load ptr, ptr %12, align 8, !tbaa !19
  %89 = ptrtoint ptr %87 to i64
  %90 = ptrtoint ptr %88 to i64
  %91 = sub i64 %89, %90
  %92 = trunc i64 %91 to i32
  %93 = load i32, ptr %13, align 8, !tbaa !18
  %94 = add nsw i32 %93, %92
  store i32 %94, ptr %13, align 8, !tbaa !18
  %95 = icmp eq i32 %86, 0
  br i1 %95, label %96, label %97

96:                                               ; preds = %82
  store i32 0, ptr %7, align 8, !tbaa !17
  store i8 0, ptr %10, align 1, !tbaa !22
  br label %_ZL19stbi__refill_bufferP13stbi__context.exit.i23

97:                                               ; preds = %82
  %98 = sext i32 %86 to i64
  %99 = getelementptr inbounds i8, ptr %10, i64 %98
  %.pre.i22 = load i8, ptr %10, align 1, !tbaa !22
  br label %_ZL19stbi__refill_bufferP13stbi__context.exit.i23

_ZL19stbi__refill_bufferP13stbi__context.exit.i23: ; preds = %97, %96
  %100 = phi i8 [ 0, %96 ], [ %.pre.i22, %97 ]
  %.sink.i.i24 = phi ptr [ %14, %96 ], [ %99, %97 ]
  store ptr %.sink.i.i24, ptr %6, align 8, !tbaa !23
  store ptr %14, ptr %5, align 8, !tbaa !20
  br label %_ZL10stbi__get8P13stbi__context.exit26

_ZL10stbi__get8P13stbi__context.exit26:           ; preds = %77, %80, %_ZL19stbi__refill_bufferP13stbi__context.exit.i23
  %.0.i25 = phi i8 [ %79, %77 ], [ %100, %_ZL19stbi__refill_bufferP13stbi__context.exit.i23 ], [ 0, %80 ]
  store i8 %.0.i25, ptr %44, align 1, !tbaa !22
  %101 = icmp ne i64 %indvars.iv, %15
  %102 = sext i1 %101 to i8
  %103 = getelementptr inbounds nuw i8, ptr %44, i64 3
  store i8 %102, ptr %103, align 1, !tbaa !22
  %indvars.iv.next = add nuw nsw i64 %indvars.iv, 1
  %exitcond.not = icmp eq i64 %indvars.iv.next, %wide.trip.count
  br i1 %exitcond.not, label %104, label %16, !llvm.loop !308

104:                                              ; preds = %_ZL10stbi__get8P13stbi__context.exit26
  ret void
}